; ModuleID = 'source-C-CXX/41/956.cpp'
source_filename = "source-C-CXX/41/956.cpp"
target datalayout = "e-m:e-p270:32:32-p271:32:32-p272:64:64-i64:64-f80:128-n8:16:32:64-S128"
target triple = "x86_64-pc-linux-gnu"

%"class.std::ios_base::Init" = type { i8 }
%"class.std::basic_istream" = type { i32 (...)**, i64, %"class.std::basic_ios" }
%"class.std::basic_ios" = type { %"class.std::ios_base", %"class.std::basic_ostream"*, i8, i8, %"class.std::basic_streambuf"*, %"class.std::ctype"*, %"class.std::num_put"*, %"class.std::num_get"* }
%"class.std::ios_base" = type { i32 (...)**, i64, i64, i32, i32, i32, %"struct.std::ios_base::_Callback_list"*, %"struct.std::ios_base::_Words", [8 x %"struct.std::ios_base::_Words"], i32, %"struct.std::ios_base::_Words"*, %"class.std::locale" }
%"struct.std::ios_base::_Callback_list" = type { %"struct.std::ios_base::_Callback_list"*, void (i32, %"class.std::ios_base"*, i32)*, i32, i32 }
%"struct.std::ios_base::_Words" = type { i8*, i64 }
%"class.std::locale" = type { %"class.std::locale::_Impl"* }
%"class.std::locale::_Impl" = type { i32, %"class.std::locale::facet"**, i64, %"class.std::locale::facet"**, i8** }
%"class.std::locale::facet" = type <{ i32 (...)**, i32, [4 x i8] }>
%"class.std::basic_ostream" = type { i32 (...)**, %"class.std::basic_ios" }
%"class.std::basic_streambuf" = type { i32 (...)**, i8*, i8*, i8*, i8*, i8*, i8*, %"class.std::locale" }
%"class.std::ctype" = type <{ %"class.std::locale::facet.base", [4 x i8], %struct.__locale_struct*, i8, [7 x i8], i32*, i32*, i16*, i8, [256 x i8], [256 x i8], i8, [6 x i8] }>
%"class.std::locale::facet.base" = type <{ i32 (...)**, i32 }>
%struct.__locale_struct = type { [13 x %struct.__locale_data*], i16*, i32*, i32*, [13 x i8*] }
%struct.__locale_data = type opaque
%"class.std::num_put" = type { %"class.std::locale::facet.base", [4 x i8] }
%"class.std::num_get" = type { %"class.std::locale::facet.base", [4 x i8] }

@_ZStL8__ioinit = internal global %"class.std::ios_base::Init" zeroinitializer, align 1
@__dso_handle = external hidden global i8
@a = dso_local global [100000 x i32] zeroinitializer, align 16
@i = dso_local local_unnamed_addr global i32 0, align 4
@n = dso_local global i32 0, align 4
@num = dso_local global i32 0, align 4
@m = dso_local local_unnamed_addr global i32 0, align 4
@l = dso_local local_unnamed_addr global i32 0, align 4
@k = dso_local local_unnamed_addr global i32 0, align 4
@_ZSt3cin = external global %"class.std::basic_istream", align 8
@_ZSt4cout = external global %"class.std::basic_ostream", align 8
@.str = private unnamed_addr constant [2 x i8] c" \00", align 1
@llvm.global_ctors = appending global [1 x { i32, void ()*, i8* }] [{ i32, void ()*, i8* } { i32 65535, void ()* @_GLOBAL__sub_I_956.cpp, i8* null }]

declare void @_ZNSt8ios_base4InitC1Ev(%"class.std::ios_base::Init"* nonnull align 1 dereferenceable(1)) unnamed_addr #0

; Function Attrs: nounwind
declare void @_ZNSt8ios_base4InitD1Ev(%"class.std::ios_base::Init"* nonnull align 1 dereferenceable(1)) unnamed_addr #1

; Function Attrs: nofree nounwind
declare i32 @__cxa_atexit(void (i8*)*, i8*, i8*) local_unnamed_addr #2

; Function Attrs: mustprogress norecurse sspstrong uwtable
define dso_local i32 @main() local_unnamed_addr #3 {
  %1 = tail call nonnull align 8 dereferenceable(16) %"class.std::basic_istream"* @_ZNSirsERi(%"class.std::basic_istream"* nonnull align 8 dereferenceable(16) @_ZSt3cin, i32* nonnull align 4 dereferenceable(4) @n)
  store i32 0, i32* @i, align 4, !tbaa !5
  %2 = load i32, i32* @n, align 4, !tbaa !5
  %3 = icmp sgt i32 %2, 0
  br i1 %3, label %4, label %13

4:                                                ; preds = %0, %4
  %5 = phi i32 [ %10, %4 ], [ 0, %0 ]
  %6 = sext i32 %5 to i64
  %7 = getelementptr inbounds [100000 x i32], [100000 x i32]* @a, i64 0, i64 %6
  %8 = tail call nonnull align 8 dereferenceable(16) %"class.std::basic_istream"* @_ZNSirsERi(%"class.std::basic_istream"* nonnull align 8 dereferenceable(16) @_ZSt3cin, i32* nonnull align 4 dereferenceable(4) %7)
  %9 = load i32, i32* @i, align 4, !tbaa !5
  %10 = add nsw i32 %9, 1
  store i32 %10, i32* @i, align 4, !tbaa !5
  %11 = load i32, i32* @n, align 4, !tbaa !5
  %12 = icmp slt i32 %10, %11
  br i1 %12, label %4, label %13, !llvm.loop !9

13:                                               ; preds = %4, %0
  %14 = tail call nonnull align 8 dereferenceable(16) %"class.std::basic_istream"* @_ZNSirsERi(%"class.std::basic_istream"* nonnull align 8 dereferenceable(16) @_ZSt3cin, i32* nonnull align 4 dereferenceable(4) @num)
  %15 = load i32, i32* @n, align 4, !tbaa !5
  %16 = load i32, i32* @num, align 4
  %17 = icmp sgt i32 %15, 0
  br i1 %17, label %18, label %20

18:                                               ; preds = %13
  %19 = sext i32 %15 to i64
  br label %25

20:                                               ; preds = %109, %13
  %21 = phi i32 [ 0, %13 ], [ %112, %109 ]
  %22 = phi i32 [ 0, %13 ], [ %111, %109 ]
  store i32 %21, i32* @l, align 4, !tbaa !5
  store i32 0, i32* @k, align 4, !tbaa !5
  %23 = sub nsw i32 %15, %22
  %24 = icmp sgt i32 %23, 0
  br i1 %24, label %114, label %130

25:                                               ; preds = %18, %109
  %26 = phi i32 [ %111, %109 ], [ 0, %18 ]
  %27 = phi i32 [ %112, %109 ], [ 0, %18 ]
  %28 = sext i32 %27 to i64
  %29 = getelementptr inbounds [100000 x i32], [100000 x i32]* @a, i64 0, i64 %28
  %30 = load i32, i32* %29, align 4, !tbaa !5
  %31 = icmp eq i32 %30, %16
  br i1 %31, label %32, label %109

32:                                               ; preds = %25
  %33 = icmp slt i32 %27, %15
  br i1 %33, label %34, label %105

34:                                               ; preds = %32
  %35 = sub nsw i64 %19, %28
  %36 = icmp ult i64 %35, 8
  br i1 %36, label %96, label %37

37:                                               ; preds = %34
  %38 = and i64 %35, -8
  %39 = add nsw i64 %38, %28
  %40 = add nsw i64 %38, -8
  %41 = lshr exact i64 %40, 3
  %42 = add nuw nsw i64 %41, 1
  %43 = and i64 %42, 1
  %44 = icmp eq i64 %40, 0
  br i1 %44, label %78, label %45

45:                                               ; preds = %37
  %46 = and i64 %42, 4611686018427387902
  br label %47

47:                                               ; preds = %47, %45
  %48 = phi i64 [ 0, %45 ], [ %75, %47 ]
  %49 = phi i64 [ %46, %45 ], [ %76, %47 ]
  %50 = add i64 %48, %28
  %51 = add nsw i64 %50, 1
  %52 = getelementptr inbounds [100000 x i32], [100000 x i32]* @a, i64 0, i64 %51
  %53 = bitcast i32* %52 to <4 x i32>*
  %54 = load <4 x i32>, <4 x i32>* %53, align 4, !tbaa !5
  %55 = getelementptr inbounds i32, i32* %52, i64 4
  %56 = bitcast i32* %55 to <4 x i32>*
  %57 = load <4 x i32>, <4 x i32>* %56, align 4, !tbaa !5
  %58 = getelementptr inbounds [100000 x i32], [100000 x i32]* @a, i64 0, i64 %50
  %59 = bitcast i32* %58 to <4 x i32>*
  store <4 x i32> %54, <4 x i32>* %59, align 4, !tbaa !5
  %60 = getelementptr inbounds i32, i32* %58, i64 4
  %61 = bitcast i32* %60 to <4 x i32>*
  store <4 x i32> %57, <4 x i32>* %61, align 4, !tbaa !5
  %62 = or i64 %48, 8
  %63 = add i64 %62, %28
  %64 = add nsw i64 %63, 1
  %65 = getelementptr inbounds [100000 x i32], [100000 x i32]* @a, i64 0, i64 %64
  %66 = bitcast i32* %65 to <4 x i32>*
  %67 = load <4 x i32>, <4 x i32>* %66, align 4, !tbaa !5
  %68 = getelementptr inbounds i32, i32* %65, i64 4
  %69 = bitcast i32* %68 to <4 x i32>*
  %70 = load <4 x i32>, <4 x i32>* %69, align 4, !tbaa !5
  %71 = getelementptr inbounds [100000 x i32], [100000 x i32]* @a, i64 0, i64 %63
  %72 = bitcast i32* %71 to <4 x i32>*
  store <4 x i32> %67, <4 x i32>* %72, align 4, !tbaa !5
  %73 = getelementptr inbounds i32, i32* %71, i64 4
  %74 = bitcast i32* %73 to <4 x i32>*
  store <4 x i32> %70, <4 x i32>* %74, align 4, !tbaa !5
  %75 = add nuw i64 %48, 16
  %76 = add i64 %49, -2
  %77 = icmp eq i64 %76, 0
  br i1 %77, label %78, label %47, !llvm.loop !11

78:                                               ; preds = %47, %37
  %79 = phi i64 [ 0, %37 ], [ %75, %47 ]
  %80 = icmp eq i64 %43, 0
  br i1 %80, label %94, label %81

81:                                               ; preds = %78
  %82 = add i64 %79, %28
  %83 = add nsw i64 %82, 1
  %84 = getelementptr inbounds [100000 x i32], [100000 x i32]* @a, i64 0, i64 %83
  %85 = bitcast i32* %84 to <4 x i32>*
  %86 = load <4 x i32>, <4 x i32>* %85, align 4, !tbaa !5
  %87 = getelementptr inbounds i32, i32* %84, i64 4
  %88 = bitcast i32* %87 to <4 x i32>*
  %89 = load <4 x i32>, <4 x i32>* %88, align 4, !tbaa !5
  %90 = getelementptr inbounds [100000 x i32], [100000 x i32]* @a, i64 0, i64 %82
  %91 = bitcast i32* %90 to <4 x i32>*
  store <4 x i32> %86, <4 x i32>* %91, align 4, !tbaa !5
  %92 = getelementptr inbounds i32, i32* %90, i64 4
  %93 = bitcast i32* %92 to <4 x i32>*
  store <4 x i32> %89, <4 x i32>* %93, align 4, !tbaa !5
  br label %94

94:                                               ; preds = %78, %81
  %95 = icmp eq i64 %35, %38
  br i1 %95, label %105, label %96

96:                                               ; preds = %34, %94
  %97 = phi i64 [ %28, %34 ], [ %39, %94 ]
  br label %98

98:                                               ; preds = %96, %98
  %99 = phi i64 [ %100, %98 ], [ %97, %96 ]
  %100 = add nsw i64 %99, 1
  %101 = getelementptr inbounds [100000 x i32], [100000 x i32]* @a, i64 0, i64 %100
  %102 = load i32, i32* %101, align 4, !tbaa !5
  %103 = getelementptr inbounds [100000 x i32], [100000 x i32]* @a, i64 0, i64 %99
  store i32 %102, i32* %103, align 4, !tbaa !5
  %104 = icmp eq i64 %100, %19
  br i1 %104, label %105, label %98, !llvm.loop !13

105:                                              ; preds = %98, %94, %32
  %106 = phi i32 [ %27, %32 ], [ %15, %94 ], [ %15, %98 ]
  store i32 %106, i32* @m, align 4, !tbaa !5
  %107 = add nsw i32 %27, -1
  %108 = add nsw i32 %26, 1
  br label %109

109:                                              ; preds = %25, %105
  %110 = phi i32 [ %107, %105 ], [ %27, %25 ]
  %111 = phi i32 [ %108, %105 ], [ %26, %25 ]
  %112 = add nsw i32 %110, 1
  %113 = icmp slt i32 %112, %15
  br i1 %113, label %25, label %20, !llvm.loop !15

114:                                              ; preds = %20, %123
  %115 = phi i32 [ %128, %123 ], [ %23, %20 ]
  %116 = phi i32 [ %126, %123 ], [ 0, %20 ]
  %117 = add nsw i32 %115, -1
  %118 = icmp eq i32 %116, %117
  %119 = sext i32 %116 to i64
  %120 = getelementptr inbounds [100000 x i32], [100000 x i32]* @a, i64 0, i64 %119
  %121 = load i32, i32* %120, align 4, !tbaa !5
  %122 = tail call nonnull align 8 dereferenceable(8) %"class.std::basic_ostream"* @_ZNSolsEi(%"class.std::basic_ostream"* nonnull align 8 dereferenceable(8) @_ZSt4cout, i32 %121)
  br i1 %118, label %130, label %123

123:                                              ; preds = %114
  %124 = tail call nonnull align 8 dereferenceable(8) %"class.std::basic_ostream"* @_ZSt16__ostream_insertIcSt11char_traitsIcEERSt13basic_ostreamIT_T0_ES6_PKS3_l(%"class.std::basic_ostream"* nonnull align 8 dereferenceable(8) %122, i8* nonnull getelementptr inbounds ([2 x i8], [2 x i8]* @.str, i64 0, i64 0), i64 1)
  %125 = load i32, i32* @k, align 4, !tbaa !5
  %126 = add nsw i32 %125, 1
  store i32 %126, i32* @k, align 4, !tbaa !5
  %127 = load i32, i32* @n, align 4, !tbaa !5
  %128 = sub nsw i32 %127, %22
  %129 = icmp slt i32 %126, %128
  br i1 %129, label %114, label %130, !llvm.loop !16

130:                                              ; preds = %123, %114, %20
  ret i32 0
}

declare nonnull align 8 dereferenceable(16) %"class.std::basic_istream"* @_ZNSirsERi(%"class.std::basic_istream"* nonnull align 8 dereferenceable(16), i32* nonnull align 4 dereferenceable(4)) local_unnamed_addr #0

declare nonnull align 8 dereferenceable(8) %"class.std::basic_ostream"* @_ZNSolsEi(%"class.std::basic_ostream"* nonnull align 8 dereferenceable(8), i32) local_unnamed_addr #0

declare nonnull align 8 dereferenceable(8) %"class.std::basic_ostream"* @_ZSt16__ostream_insertIcSt11char_traitsIcEERSt13basic_ostreamIT_T0_ES6_PKS3_l(%"class.std::basic_ostream"* nonnull align 8 dereferenceable(8), i8*, i64) local_unnamed_addr #0

; Function Attrs: sspstrong uwtable
define internal void @_GLOBAL__sub_I_956.cpp() #4 section ".text.startup" {
  tail call void @_ZNSt8ios_base4InitC1Ev(%"class.std::ios_base::Init"* nonnull align 1 dereferenceable(1) @_ZStL8__ioinit)
  %1 = tail call i32 @__cxa_atexit(void (i8*)* bitcast (void (%"class.std::ios_base::Init"*)* @_ZNSt8ios_base4InitD1Ev to void (i8*)*), i8* getelementptr inbounds (%"class.std::ios_base::Init", %"class.std::ios_base::Init"* @_ZStL8__ioinit, i64 0, i32 0), i8* nonnull @__dso_handle) #5
  ret void
}


!llvm.module.flags = !{!0, !1, !2, !3}
!llvm.ident = !{!4}

!0 = !{i32 1, !"wchar_size", i32 4}
!1 = !{i32 7, !"PIC Level", i32 2}
!2 = !{i32 7, !"PIE Level", i32 2}
!3 = !{i32 7, !"uwtable", i32 1}
!4 = !{!"clang version 13.0.0"}
!5 = !{!6, !6, i64 0}
!6 = !{!"int", !7, i64 0}
!7 = !{!"omnipotent char", !8, i64 0}
!8 = !{!"Simple C++ TBAA"}
!9 = distinct !{!9, !10}
!10 = !{!"llvm.loop.mustprogress"}
!11 = distinct !{!11, !10, !12}
!12 = !{!"llvm.loop.isvectorized", i32 1}
!13 = distinct !{!13, !10, !14, !12}
!14 = !{!"llvm.loop.unroll.runtime.disable"}
!15 = distinct !{!15, !10}
!16 = distinct !{!16, !10}
